target datalayout = "e-m:e-p270:32:32-p271:32:32-p272:64:64-i64:64-i128:128-f80:128-n8:16:32:64-S128"
target triple = "x86_64-pc-linux-gnu"

%"class.g2o::JacobianWorkspace" = type { %"class.std::vector", i32, i32 }
%"class.std::vector" = type { %"struct.std::_Vector_base" }
%"struct.std::_Vector_base" = type { %"struct.std::_Vector_base<Eigen::Matrix<double, -1, 1>, std::allocator<Eigen::Matrix<double, -1, 1>>>::_Vector_impl" }
%"struct.std::_Vector_base<Eigen::Matrix<double, -1, 1>, std::allocator<Eigen::Matrix<double, -1, 1>>>::_Vector_impl" = type { %"struct.std::_Vector_base<Eigen::Matrix<double, -1, 1>, std::allocator<Eigen::Matrix<double, -1, 1>>>::_Vector_impl_data" }
%"struct.std::_Vector_base<Eigen::Matrix<double, -1, 1>, std::allocator<Eigen::Matrix<double, -1, 1>>>::_Vector_impl_data" = type { ptr, ptr, ptr }

; Function Attrs: inlinehint mustprogress nounwind uwtable
define linkonce_odr noundef nonnull align 4 dereferenceable(4) ptr @_ZSt3maxIiERKT_S2_S2_(ptr noundef nonnull align 4 dereferenceable(4) %0, ptr noundef nonnull align 4 dereferenceable(4) %1) #7 comdat {
  %3 = alloca ptr, align 8
  %4 = alloca ptr, align 8
  %5 = alloca ptr, align 8
  store ptr %0, ptr %4, align 8, !tbaa !94
  store ptr %1, ptr %5, align 8, !tbaa !94
  %6 = load ptr, ptr %4, align 8, !tbaa !94
  %7 = load i32, ptr %6, align 4, !tbaa !52
  %8 = load ptr, ptr %5, align 8, !tbaa !94
  %9 = load i32, ptr %8, align 4, !tbaa !52
  %10 = icmp slt i32 %7, %9
  br i1 %10, label %11, label %13

11:                                               ; preds = %2
  %12 = load ptr, ptr %5, align 8, !tbaa !94
  store ptr %12, ptr %3, align 8
  br label %15

13:                                               ; preds = %2
  %14 = load ptr, ptr %4, align 8, !tbaa !94
  store ptr %14, ptr %3, align 8
  br label %15

15:                                               ; preds = %13, %11
  %16 = load ptr, ptr %3, align 8
  ret ptr %16
}

; Function Attrs: mustprogress uwtable
define void @_ZN3g2o17JacobianWorkspace10updateSizeEiib(ptr noundef nonnull align 8 dereferenceable(32) %0, i32 noundef %1, i32 noundef %2, i1 noundef zeroext %3) #3 align 2 {
  %5 = alloca ptr, align 8
  %6 = alloca i32, align 4
  %7 = alloca i32, align 4
  %8 = alloca i8, align 1
  store ptr %0, ptr %5, align 8, !tbaa !14
  store i32 %1, ptr %6, align 4, !tbaa !52
  store i32 %2, ptr %7, align 4, !tbaa !52
  %9 = zext i1 %3 to i8
  store i8 %9, ptr %8, align 1, !tbaa !46
  %10 = load ptr, ptr %5, align 8
  %11 = load i8, ptr %8, align 1, !tbaa !46, !range !48, !noundef !49
  %12 = trunc i8 %11 to i1
  br i1 %12, label %13, label %16

13:                                               ; preds = %4
  %14 = getelementptr inbounds nuw %"class.g2o::JacobianWorkspace", ptr %10, i32 0, i32 1
  store i32 -1, ptr %14, align 8, !tbaa !16
  %15 = getelementptr inbounds nuw %"class.g2o::JacobianWorkspace", ptr %10, i32 0, i32 2
  store i32 -1, ptr %15, align 4, !tbaa !24
  br label %16

16:                                               ; preds = %13, %4
  %17 = getelementptr inbounds nuw %"class.g2o::JacobianWorkspace", ptr %10, i32 0, i32 1
  %18 = call noundef nonnull align 4 dereferenceable(4) ptr @_ZSt3maxIiERKT_S2_S2_(ptr noundef nonnull align 4 dereferenceable(4) %6, ptr noundef nonnull align 4 dereferenceable(4) %17)
  %19 = load i32, ptr %18, align 4, !tbaa !52
  %20 = getelementptr inbounds nuw %"class.g2o::JacobianWorkspace", ptr %10, i32 0, i32 1
  store i32 %19, ptr %20, align 8, !tbaa !16
  %21 = getelementptr inbounds nuw %"class.g2o::JacobianWorkspace", ptr %10, i32 0, i32 2
  %22 = call noundef nonnull align 4 dereferenceable(4) ptr @_ZSt3maxIiERKT_S2_S2_(ptr noundef nonnull align 4 dereferenceable(4) %7, ptr noundef nonnull align 4 dereferenceable(4) %21)
  %23 = load i32, ptr %22, align 4, !tbaa !52
  %24 = getelementptr inbounds nuw %"class.g2o::JacobianWorkspace", ptr %10, i32 0, i32 2
  store i32 %23, ptr %24, align 4, !tbaa !24
  ret void
}