; Function Attrs: mustprogress nofree norecurse nosync nounwind willreturn memory(argmem: readwrite) uwtable
define void @_ZN3g2o17JacobianWorkspace10updateSizeEiib(ptr noundef nonnull align 8 captures(none) dereferenceable(32) %0, i32 noundef %1, i32 noundef %2, i1 noundef zeroext %3) local_unnamed_addr #10 align 2 {
  %.phi.trans.insert = getelementptr inbounds nuw i8, ptr %0, i64 24
  %.pre = load i32, ptr %.phi.trans.insert, align 8
  %.phi.trans.insert7 = getelementptr inbounds nuw i8, ptr %0, i64 28
  %.pre8 = load i32, ptr %.phi.trans.insert7, align 4
  %5 = select i1 %3, i32 -1, i32 %.pre8
  %6 = select i1 %3, i32 -1, i32 %.pre
  %7 = getelementptr inbounds nuw i8, ptr %0, i64 24
  %.sroa.speculated4 = tail call i32 @llvm.smax.i32(i32 %1, i32 %6)
  store i32 %.sroa.speculated4, ptr %7, align 8, !tbaa !3
  %8 = getelementptr inbounds nuw i8, ptr %0, i64 28
  %.sroa.speculated = tail call i32 @llvm.smax.i32(i32 %2, i32 %5)
  store i32 %.sroa.speculated, ptr %8, align 4, !tbaa !14
  ret void
}